target datalayout = "e-m:e-p270:32:32-p271:32:32-p272:64:64-i64:64-i128:128-f80:128-n8:16:32:64-S128"
target triple = "x86_64-pc-linux-gnu"

%struct._object = type { %union.anon, ptr }
%union.anon = type { i64 }
%struct.HMACobject = type { %struct._object, ptr, i8, %struct.PyMutex }
%struct.PyMutex = type { i8 }

@PyExc_ValueError = external global ptr, align 8

; Function Attrs: nounwind uwtable
define internal i32 @_hmac_digest_size(ptr noundef %0) #0 {
  %2 = alloca ptr, align 8
  %3 = alloca i32, align 4
  store ptr %0, ptr %2, align 8, !tbaa !3
  call void @llvm.lifetime.start.p0(i64 4, ptr %3) #9
  %4 = load ptr, ptr %2, align 8, !tbaa !3
  %5 = getelementptr inbounds nuw %struct.HMACobject, ptr %4, i32 0, i32 1
  %6 = load ptr, ptr %5, align 8, !tbaa !7
  %7 = call ptr @HMAC_CTX_get_md(ptr noundef %6)
  %8 = call i32 @EVP_MD_get_size(ptr noundef %7)
  store i32 %8, ptr %3, align 4, !tbaa !19
  %9 = load i32, ptr %3, align 4, !tbaa !19
  call void @llvm.lifetime.end.p0(i64 4, ptr %3) #9
  ret i32 %9
}

; Function Attrs: nounwind uwtable
define internal ptr @_hashlib_HMAC_hexdigest_impl(ptr noundef %0) #0 {
  %2 = alloca ptr, align 8
  %3 = alloca ptr, align 8
  %4 = alloca [64 x i8], align 16
  %5 = alloca i32, align 4
  %6 = alloca i32, align 4
  %7 = alloca i32, align 4
  store ptr %0, ptr %3, align 8, !tbaa !3
  call void @llvm.lifetime.start.p0(i64 64, ptr %4) #9
  call void @llvm.lifetime.start.p0(i64 4, ptr %5) #9
  %8 = load ptr, ptr %3, align 8, !tbaa !3
  %9 = call i32 @_hmac_digest_size(ptr noundef %8)
  store i32 %9, ptr %5, align 4, !tbaa !19
  %10 = load i32, ptr %5, align 4, !tbaa !19
  %11 = icmp eq i32 %10, 0
  br i1 %11, label %12, label %15

12:                                               ; preds = %1
  %13 = load ptr, ptr @PyExc_ValueError, align 8, !tbaa !14
  %14 = call ptr (ptr, ptr, ...) @_setException(ptr noundef %13, ptr noundef null)
  store ptr %14, ptr %2, align 8
  store i32 1, ptr %6, align 4
  br label %29

15:                                               ; preds = %1
  call void @llvm.lifetime.start.p0(i64 4, ptr %7) #9
  %16 = load ptr, ptr %3, align 8, !tbaa !3
  %17 = getelementptr inbounds [64 x i8], ptr %4, i64 0, i64 0
  %18 = load i32, ptr %5, align 4, !tbaa !19
  %19 = call i32 @_hmac_digest(ptr noundef %16, ptr noundef %17, i32 noundef %18)
  store i32 %19, ptr %7, align 4, !tbaa !19
  %20 = load i32, ptr %7, align 4, !tbaa !19
  %21 = icmp eq i32 %20, 0
  br i1 %21, label %22, label %23

22:                                               ; preds = %15
  store ptr null, ptr %2, align 8
  store i32 1, ptr %6, align 4
  br label %28

23:                                               ; preds = %15
  %24 = getelementptr inbounds [64 x i8], ptr %4, i64 0, i64 0
  %25 = load i32, ptr %5, align 4, !tbaa !19
  %26 = zext i32 %25 to i64
  %27 = call ptr @_Py_strhex(ptr noundef %24, i64 noundef %26)
  store ptr %27, ptr %2, align 8
  store i32 1, ptr %6, align 4
  br label %28

28:                                               ; preds = %23, %22
  call void @llvm.lifetime.end.p0(i64 4, ptr %7) #9
  br label %29

29:                                               ; preds = %28, %12
  call void @llvm.lifetime.end.p0(i64 4, ptr %5) #9
  call void @llvm.lifetime.end.p0(i64 64, ptr %4) #9
  %30 = load ptr, ptr %2, align 8
  ret ptr %30
}

; Function Attrs: nounwind uwtable
define internal ptr @_hashlib_HMAC_hexdigest(ptr noundef %0, ptr noundef %1) #0 {
  %3 = alloca ptr, align 8
  %4 = alloca ptr, align 8
  store ptr %0, ptr %3, align 8, !tbaa !14
  store ptr %1, ptr %4, align 8, !tbaa !14
  %5 = load ptr, ptr %3, align 8, !tbaa !14
  %6 = call ptr @_hashlib_HMAC_hexdigest_impl(ptr noundef %5)
  ret ptr %6
}